target datalayout = "e-m:e-p270:32:32-p271:32:32-p272:64:64-i64:64-i128:128-f80:128-n8:16:32:64-S128"
target triple = "x86_64-pc-linux-gnu"

; Function Attrs: mustprogress nounwind uwtable
define noundef ptr @_ZN6icu_7712PropNameData7getNameEPKci(ptr noundef %0, i32 noundef %1) #3 align 2 {
  %3 = alloca ptr, align 8
  %4 = alloca ptr, align 8
  %5 = alloca i32, align 4
  %6 = alloca i32, align 4
  %7 = alloca i32, align 4
  store ptr %0, ptr %4, align 8, !tbaa !3
  store i32 %1, ptr %5, align 4, !tbaa !8
  call void @llvm.lifetime.start.p0(i64 4, ptr %6) #7
  %8 = load ptr, ptr %4, align 8, !tbaa !3
  %9 = getelementptr inbounds nuw i8, ptr %8, i32 1
  store ptr %9, ptr %4, align 8, !tbaa !3
  %10 = load i8, ptr %8, align 1, !tbaa !12
  %11 = sext i8 %10 to i32
  store i32 %11, ptr %6, align 4, !tbaa !8
  %12 = load i32, ptr %5, align 4, !tbaa !8
  %13 = icmp slt i32 %12, 0
  br i1 %13, label %18, label %14

14:                                               ; preds = %2
  %15 = load i32, ptr %6, align 4, !tbaa !8
  %16 = load i32, ptr %5, align 4, !tbaa !8
  %17 = icmp sle i32 %15, %16
  br i1 %17, label %18, label %19

18:                                               ; preds = %14, %2
  store ptr null, ptr %3, align 8
  store i32 1, ptr %7, align 4
  br label %38

19:                                               ; preds = %14
  br label %20

20:                                               ; preds = %27, %19
  %21 = load i32, ptr %5, align 4, !tbaa !8
  %22 = icmp sgt i32 %21, 0
  br i1 %22, label %23, label %30

23:                                               ; preds = %20
  %24 = load ptr, ptr %4, align 8, !tbaa !3
  %25 = call noundef ptr @strchr(ptr noundef %24, i32 noundef 0) #8
  %26 = getelementptr inbounds i8, ptr %25, i64 1
  store ptr %26, ptr %4, align 8, !tbaa !3
  br label %27

27:                                               ; preds = %23
  %28 = load i32, ptr %5, align 4, !tbaa !8
  %29 = add nsw i32 %28, -1
  store i32 %29, ptr %5, align 4, !tbaa !8
  br label %20, !llvm.loop !19

30:                                               ; preds = %20
  %31 = load ptr, ptr %4, align 8, !tbaa !3
  %32 = load i8, ptr %31, align 1, !tbaa !12
  %33 = sext i8 %32 to i32
  %34 = icmp eq i32 %33, 0
  br i1 %34, label %35, label %36

35:                                               ; preds = %30
  store ptr null, ptr %3, align 8
  store i32 1, ptr %7, align 4
  br label %38

36:                                               ; preds = %30
  %37 = load ptr, ptr %4, align 8, !tbaa !3
  store ptr %37, ptr %3, align 8
  store i32 1, ptr %7, align 4
  br label %38

38:                                               ; preds = %36, %35, %18
  call void @llvm.lifetime.end.p0(i64 4, ptr %6) #7
  %39 = load ptr, ptr %3, align 8
  ret ptr %39
}