; Function Attrs: mustprogress nofree nounwind willreturn memory(argmem: read) uwtable
define noundef ptr @_ZN6icu_7712PropNameData7getNameEPKci(ptr noundef readonly %0, i32 noundef %1) local_unnamed_addr #3 align 2 {
  %3 = icmp slt i32 %1, 0
  br i1 %3, label %11, label %4

4:                                                ; preds = %2
  %5 = load i8, ptr %0, align 1, !tbaa !3
  %6 = sext i8 %5 to i32
  %.not = icmp slt i32 %1, %6
  br i1 %.not, label %.preheader, label %11

.preheader:                                       ; preds = %4
  %.01012 = getelementptr inbounds nuw i8, ptr %0, i64 1
  %.not15 = icmp eq i32 %1, 0
  br i1 %.not15, label %._crit_edge, label %.lr.ph

.lr.ph:                                           ; preds = %.preheader, %.lr.ph
  %.01014 = phi ptr [ %.010, %.lr.ph ], [ %.01012, %.preheader ]
  %.0913 = phi i32 [ %7, %.lr.ph ], [ %1, %.preheader ]
  %strlen = tail call i64 @strlen(ptr noundef nonnull dereferenceable(1) %.01014)
  %strchr = getelementptr inbounds i8, ptr %.01014, i64 %strlen
  %7 = add nsw i32 %.0913, -1
  %.010 = getelementptr inbounds nuw i8, ptr %strchr, i64 1
  %8 = icmp samesign ugt i32 %.0913, 1
  br i1 %8, label %.lr.ph, label %._crit_edge, !llvm.loop !15

._crit_edge:                                      ; preds = %.lr.ph, %.preheader
  %.010.lcssa = phi ptr [ %.01012, %.preheader ], [ %.010, %.lr.ph ]
  %9 = load i8, ptr %.010.lcssa, align 1, !tbaa !3
  %10 = icmp eq i8 %9, 0
  %..010 = select i1 %10, ptr null, ptr %.010.lcssa
  br label %11

11:                                               ; preds = %._crit_edge, %2, %4
  %.0 = phi ptr [ null, %4 ], [ null, %2 ], [ %..010, %._crit_edge ]
  ret ptr %.0
}